; Function Attrs: null_pointer_is_valid sspstrong uwtable
define internal fastcc void @dissect_arcnet_common(ptr noundef %0, ptr noundef initializes((112, 160), (208, 256)) %1, ptr noundef %2, i1 noundef zeroext %3, i1 noundef zeroext %4) unnamed_addr #0 {
  %6 = getelementptr inbounds nuw i8, ptr %1, i64 8
  %7 = load ptr, ptr %6, align 8
  tail call void @col_set_str(ptr noundef %7, i32 noundef 35, ptr noundef nonnull @.str.20)
  %8 = load ptr, ptr %6, align 8
  tail call void @col_set_str(ptr noundef %8, i32 noundef 25, ptr noundef nonnull @.str.20)
  %9 = tail call zeroext i8 @tvb_get_uint8(ptr noundef %0, i32 noundef 0)
  %10 = tail call zeroext i8 @tvb_get_uint8(ptr noundef %0, i32 noundef 1)
  %11 = getelementptr inbounds nuw i8, ptr %1, i64 112
  %12 = load i32, ptr @arcnet_address_type, align 4
  %13 = tail call ptr @tvb_get_ptr(ptr noundef %0, i32 noundef 0, i32 noundef 1)
  store i32 %12, ptr %11, align 8
  %14 = getelementptr inbounds nuw i8, ptr %1, i64 116
  store i32 1, ptr %14, align 4
  %15 = getelementptr inbounds nuw i8, ptr %1, i64 120
  store ptr %13, ptr %15, align 8
  %16 = getelementptr inbounds nuw i8, ptr %1, i64 128
  store ptr null, ptr %16, align 8
  %17 = getelementptr inbounds nuw i8, ptr %1, i64 208
  store i32 %12, ptr %17, align 8
  %18 = getelementptr inbounds nuw i8, ptr %1, i64 212
  store i32 1, ptr %18, align 4
  %19 = getelementptr inbounds nuw i8, ptr %1, i64 216
  store ptr %13, ptr %19, align 8
  %20 = getelementptr inbounds nuw i8, ptr %1, i64 224
  store ptr null, ptr %20, align 8
  %21 = getelementptr inbounds nuw i8, ptr %1, i64 136
  %22 = load i32, ptr @arcnet_address_type, align 4
  %23 = tail call ptr @tvb_get_ptr(ptr noundef %0, i32 noundef 1, i32 noundef 1)
  store i32 %22, ptr %21, align 8
  %24 = getelementptr inbounds nuw i8, ptr %1, i64 140
  store i32 1, ptr %24, align 4
  %25 = getelementptr inbounds nuw i8, ptr %1, i64 144
  store ptr %23, ptr %25, align 8
  %26 = getelementptr inbounds nuw i8, ptr %1, i64 152
  store ptr null, ptr %26, align 8
  %27 = getelementptr inbounds nuw i8, ptr %1, i64 232
  store i32 %22, ptr %27, align 8
  %28 = getelementptr inbounds nuw i8, ptr %1, i64 236
  store i32 1, ptr %28, align 4
  %29 = getelementptr inbounds nuw i8, ptr %1, i64 240
  store ptr %23, ptr %29, align 8
  %30 = getelementptr inbounds nuw i8, ptr %1, i64 248
  store ptr null, ptr %30, align 8
  %31 = load i32, ptr @proto_arcnet, align 4
  %32 = tail call ptr @proto_tree_add_item(ptr noundef %2, i32 noundef %31, ptr noundef %0, i32 noundef 0, i32 noundef -1, i32 noundef 0)
  %33 = load i32, ptr @ett_arcnet, align 4
  %34 = tail call ptr @proto_item_add_subtree(ptr noundef %32, i32 noundef %33)
  %35 = load i32, ptr @hf_arcnet_src, align 4
  %36 = zext i8 %9 to i32
  %37 = tail call ptr @proto_tree_add_uint(ptr noundef %34, i32 noundef %35, ptr noundef %0, i32 noundef 0, i32 noundef 1, i32 noundef %36)
  %38 = load i32, ptr @hf_arcnet_dst, align 4
  %39 = zext i8 %10 to i32
  %40 = tail call ptr @proto_tree_add_uint(ptr noundef %34, i32 noundef %38, ptr noundef %0, i32 noundef 1, i32 noundef 1, i32 noundef %39)
  br i1 %3, label %41, label %44

41:                                               ; preds = %5
  %42 = load i32, ptr @hf_arcnet_offset, align 4
  %43 = tail call ptr @proto_tree_add_item(ptr noundef %34, i32 noundef %42, ptr noundef %0, i32 noundef 2, i32 noundef 2, i32 noundef 0)
  br label %44

44:                                               ; preds = %41, %5
  %.0 = phi i32 [ 4, %41 ], [ 2, %5 ]
  %45 = tail call zeroext i8 @tvb_get_uint8(ptr noundef %0, i32 noundef %.0)
  %46 = load i32, ptr @hf_arcnet_protID, align 4
  %47 = zext i8 %45 to i32
  %48 = tail call ptr @proto_tree_add_uint(ptr noundef %34, i32 noundef %46, ptr noundef %0, i32 noundef %.0, i32 noundef 1, i32 noundef %47)
  %49 = or disjoint i32 %.0, 1
  switch i8 %45, label %50 [
    i8 -16, label %72
    i8 -15, label %72
    i8 -128, label %72
    i8 -51, label %72
  ]

50:                                               ; preds = %44
  %51 = tail call zeroext i8 @tvb_get_uint8(ptr noundef %0, i32 noundef %49)
  %52 = icmp eq i8 %51, -1
  %or.cond = select i1 %4, i1 %52, i1 false
  br i1 %or.cond, label %53, label %64

53:                                               ; preds = %50
  %54 = load i32, ptr @hf_arcnet_exception_flag, align 4
  %55 = tail call ptr @proto_tree_add_uint(ptr noundef %34, i32 noundef %54, ptr noundef %0, i32 noundef %49, i32 noundef 1, i32 noundef 255)
  %56 = add nuw nsw i32 %.0, 2
  %57 = load i32, ptr @hf_arcnet_padding, align 4
  %58 = tail call ptr @proto_tree_add_item(ptr noundef %34, i32 noundef %57, ptr noundef %0, i32 noundef %56, i32 noundef 2, i32 noundef 0)
  %59 = add nuw nsw i32 %.0, 4
  %60 = load i32, ptr @hf_arcnet_protID, align 4
  %61 = tail call ptr @proto_tree_add_item(ptr noundef %34, i32 noundef %60, ptr noundef %0, i32 noundef %59, i32 noundef 1, i32 noundef 0)
  %62 = add nuw nsw i32 %.0, 5
  %63 = tail call zeroext i8 @tvb_get_uint8(ptr noundef %0, i32 noundef %62)
  br label %64

64:                                               ; preds = %53, %50
  %.080 = phi i8 [ %63, %53 ], [ %51, %50 ]
  %.2 = phi i32 [ %62, %53 ], [ %49, %50 ]
  %65 = load i32, ptr @hf_arcnet_split_flag, align 4
  %66 = zext i8 %.080 to i32
  %67 = tail call ptr @proto_tree_add_uint(ptr noundef %34, i32 noundef %65, ptr noundef %0, i32 noundef %.2, i32 noundef 1, i32 noundef %66)
  %68 = add nuw nsw i32 %.2, 1
  %69 = load i32, ptr @hf_arcnet_sequence, align 4
  %70 = tail call ptr @proto_tree_add_item(ptr noundef %34, i32 noundef %69, ptr noundef %0, i32 noundef %68, i32 noundef 2, i32 noundef 0)
  %71 = add nuw nsw i32 %.2, 3
  br label %72

72:                                               ; preds = %44, %44, %44, %44, %64
  %.1 = phi i32 [ %71, %64 ], [ %49, %44 ], [ %49, %44 ], [ %49, %44 ], [ %49, %44 ]
  tail call void @proto_item_set_len(ptr noundef %32, i32 noundef %.1)
  %73 = tail call ptr @tvb_new_subset_remaining(ptr noundef %0, i32 noundef %.1)
  %74 = load ptr, ptr @arcnet_dissector_table, align 8
  %75 = tail call i32 @dissector_try_uint(ptr noundef %74, i32 noundef %47, ptr noundef %73, ptr noundef %1, ptr noundef %2)
  %.not = icmp eq i32 %75, 0
  br i1 %.not, label %76, label %79

76:                                               ; preds = %72
  %77 = load ptr, ptr %6, align 8
  tail call void (ptr, i32, ptr, ...) @col_add_fstr(ptr noundef %77, i32 noundef 35, ptr noundef nonnull @.str.49, i32 noundef %47)
  %78 = tail call i32 @call_data_dissector(ptr noundef %73, ptr noundef %1, ptr noundef %2)
  br label %79

79:                                               ; preds = %76, %72
  ret void
}